target datalayout = "e-m:e-p270:32:32-p271:32:32-p272:64:64-i64:64-i128:128-f80:128-n8:16:32:64-S128"
target triple = "x86_64-pc-linux-gnu"

%struct.ident_t = type { i32, i32, i32, i32, ptr }

@2 = private unnamed_addr constant %struct.ident_t { i32 0, i32 2, i32 0, i32 22, ptr @0 }, align 8

; Function Attrs: mustprogress nounwind uwtable
define void @_ZN5faiss25knn_inner_products_by_idxEPKfS1_PKlmmmmmPfPll(ptr noundef %0, ptr noundef %1, ptr noundef %2, i64 noundef %3, i64 noundef %4, i64 noundef %5, i64 noundef %6, i64 noundef %7, ptr noundef %8, ptr noundef %9, i64 noundef %10) #0 {
  %12 = alloca ptr, align 8
  %13 = alloca ptr, align 8
  %14 = alloca ptr, align 8
  %15 = alloca i64, align 8
  %16 = alloca i64, align 8
  %17 = alloca i64, align 8
  %18 = alloca i64, align 8
  %19 = alloca i64, align 8
  %20 = alloca ptr, align 8
  %21 = alloca ptr, align 8
  %22 = alloca i64, align 8
  %23 = alloca i32, align 4
  %24 = alloca i32, align 4
  %25 = call i32 @__kmpc_global_thread_num(ptr @2)
  store ptr %0, ptr %12, align 8
  store ptr %1, ptr %13, align 8
  store ptr %2, ptr %14, align 8
  store i64 %3, ptr %15, align 8
  store i64 %4, ptr %16, align 8
  store i64 %5, ptr %17, align 8
  store i64 %6, ptr %18, align 8
  store i64 %7, ptr %19, align 8
  store ptr %8, ptr %20, align 8
  store ptr %9, ptr %21, align 8
  store i64 %10, ptr %22, align 8
  %26 = load i64, ptr %22, align 8
  %27 = icmp slt i64 %26, 0
  br i1 %27, label %28, label %30

28:                                               ; preds = %11
  %29 = load i64, ptr %17, align 8
  store i64 %29, ptr %22, align 8
  br label %30

30:                                               ; preds = %28, %11
  %31 = load i64, ptr %16, align 8
  %32 = icmp ugt i64 %31, 100
  br i1 %32, label %33, label %34

33:                                               ; preds = %30
  call void (ptr, i32, ptr, ...) @__kmpc_fork_call(ptr @2, i32 11, ptr @_ZN5faiss25knn_inner_products_by_idxEPKfS1_PKlmmmmmPfPll.omp_outlined, ptr %16, ptr %12, ptr %15, ptr %14, ptr %22, ptr %20, ptr %19, ptr %21, ptr %18, ptr %17, ptr %13)
  br label %35

34:                                               ; preds = %30
  call void @__kmpc_serialized_parallel(ptr @2, i32 %25)
  store i32 %25, ptr %23, align 4
  store i32 0, ptr %24, align 4
  call void @_ZN5faiss25knn_inner_products_by_idxEPKfS1_PKlmmmmmPfPll.omp_outlined(ptr %23, ptr %24, ptr %16, ptr %12, ptr %15, ptr %14, ptr %22, ptr %20, ptr %19, ptr %21, ptr %18, ptr %17, ptr %13) #2
  call void @__kmpc_end_serialized_parallel(ptr @2, i32 %25)
  br label %35

35:                                               ; preds = %34, %33
  ret void
}