; Function Attrs: mustprogress nounwind uwtable
define void @_ZN5faiss25knn_inner_products_by_idxEPKfS1_PKlmmmmmPfPll(ptr noundef %0, ptr noundef %1, ptr noundef %2, i64 noundef %3, i64 noundef %4, i64 noundef %5, i64 noundef %6, i64 noundef %7, ptr noundef %8, ptr noundef %9, i64 noundef %10) local_unnamed_addr #0 {
  %12 = alloca ptr, align 8
  %13 = alloca ptr, align 8
  %14 = alloca ptr, align 8
  %15 = alloca i64, align 8
  %16 = alloca i64, align 8
  %17 = alloca i64, align 8
  %18 = alloca i64, align 8
  %19 = alloca i64, align 8
  %20 = alloca ptr, align 8
  %21 = alloca ptr, align 8
  %22 = alloca i64, align 8
  %23 = alloca i32, align 4
  %24 = tail call i32 @__kmpc_global_thread_num(ptr nonnull @2)
  store ptr %0, ptr %12, align 8
  store ptr %1, ptr %13, align 8
  store ptr %2, ptr %14, align 8
  store i64 %3, ptr %15, align 8
  store i64 %4, ptr %16, align 8
  store i64 %5, ptr %17, align 8
  store i64 %6, ptr %18, align 8
  store i64 %7, ptr %19, align 8
  store ptr %8, ptr %20, align 8
  store ptr %9, ptr %21, align 8
  %25 = icmp slt i64 %10, 0
  %spec.store.select = select i1 %25, i64 %5, i64 %10
  store i64 %spec.store.select, ptr %22, align 8
  %26 = icmp ugt i64 %4, 100
  br i1 %26, label %27, label %28

27:                                               ; preds = %11
  call void (ptr, i32, ptr, ...) @__kmpc_fork_call(ptr nonnull @2, i32 11, ptr nonnull @_ZN5faiss25knn_inner_products_by_idxEPKfS1_PKlmmmmmPfPll.omp_outlined, ptr nonnull %16, ptr nonnull %12, ptr nonnull %15, ptr nonnull %14, ptr nonnull %22, ptr nonnull %20, ptr nonnull %19, ptr nonnull %21, ptr nonnull %18, ptr nonnull %17, ptr nonnull %13)
  br label %29

28:                                               ; preds = %11
  tail call void @__kmpc_serialized_parallel(ptr nonnull @2, i32 %24)
  store i32 %24, ptr %23, align 4
  call void @_ZN5faiss25knn_inner_products_by_idxEPKfS1_PKlmmmmmPfPll.omp_outlined(ptr nonnull %23, ptr nonnull poison, ptr %16, ptr %12, ptr %15, ptr %14, ptr %22, ptr %20, ptr %19, ptr %21, ptr %18, ptr %17, ptr %13) #2
  tail call void @__kmpc_end_serialized_parallel(ptr nonnull @2, i32 %24)
  br label %29

29:                                               ; preds = %28, %27
  ret void
}